target datalayout = "e-m:e-p270:32:32-p271:32:32-p272:64:64-i64:64-i128:128-f80:128-n8:16:32:64-S128"
target triple = "x86_64-pc-linux-gnu"

%struct.conf_module_st = type { ptr, ptr, ptr, ptr, i32, ptr }

@.str.1 = private unnamed_addr constant [34 x i8] c"../openssl/crypto/conf/conf_mod.c\00", align 1
@module_list_lock = internal global ptr null, align 8
@supported_modules = internal global ptr null, align 8
@init_module_list_lock = internal global i32 0, align 4
@do_init_module_list_lock_ossl_ret_ = internal global i32 0, align 4

; Function Attrs: inlinehint nounwind uwtable
define internal void @sk_CONF_MODULE_free(ptr noundef %0) #3 {
  %2 = alloca ptr, align 8
  store ptr %0, ptr %2, align 8, !tbaa !33
  %3 = load ptr, ptr %2, align 8, !tbaa !33
  call void @OPENSSL_sk_free(ptr noundef %3)
  ret void
}

; Function Attrs: inlinehint nounwind uwtable
define internal i32 @sk_CONF_MODULE_push(ptr noundef %0, ptr noundef %1) #3 {
  %3 = alloca ptr, align 8
  %4 = alloca ptr, align 8
  store ptr %0, ptr %3, align 8, !tbaa !33
  store ptr %1, ptr %4, align 8, !tbaa !27
  %5 = load ptr, ptr %3, align 8, !tbaa !33
  %6 = load ptr, ptr %4, align 8, !tbaa !27
  %7 = call i32 @OPENSSL_sk_push(ptr noundef %5, ptr noundef %6)
  ret i32 %7
}

; Function Attrs: inlinehint nounwind uwtable
define internal ptr @sk_CONF_MODULE_dup(ptr noundef %0) #3 {
  %2 = alloca ptr, align 8
  store ptr %0, ptr %2, align 8, !tbaa !33
  %3 = load ptr, ptr %2, align 8, !tbaa !33
  %4 = call ptr @OPENSSL_sk_dup(ptr noundef %3)
  ret ptr %4
}

; Function Attrs: inlinehint nounwind uwtable
define internal ptr @sk_CONF_MODULE_new_null() #3 {
  %1 = call ptr @OPENSSL_sk_new_null()
  ret ptr %1
}

; Function Attrs: nounwind uwtable
define internal ptr @module_add(ptr noundef %0, ptr noundef %1, ptr noundef %2, ptr noundef %3) #0 {
  %5 = alloca ptr, align 8
  %6 = alloca ptr, align 8
  %7 = alloca ptr, align 8
  %8 = alloca ptr, align 8
  %9 = alloca ptr, align 8
  %10 = alloca ptr, align 8
  %11 = alloca ptr, align 8
  %12 = alloca ptr, align 8
  %13 = alloca i32, align 4
  store ptr %0, ptr %6, align 8, !tbaa !46
  store ptr %1, ptr %7, align 8, !tbaa !8
  store ptr %2, ptr %8, align 8, !tbaa !16
  store ptr %3, ptr %9, align 8, !tbaa !16
  call void @llvm.lifetime.start.p0(i64 8, ptr %10) #6
  store ptr null, ptr %10, align 8, !tbaa !27
  call void @llvm.lifetime.start.p0(i64 8, ptr %11) #6
  call void @llvm.lifetime.start.p0(i64 8, ptr %12) #6
  %14 = call i32 @CRYPTO_THREAD_run_once(ptr noundef @init_module_list_lock, ptr noundef @do_init_module_list_lock_ossl_)
  %15 = icmp ne i32 %14, 0
  br i1 %15, label %16, label %19

16:                                               ; preds = %4
  %17 = load i32, ptr @do_init_module_list_lock_ossl_ret_, align 4, !tbaa !14
  %18 = icmp ne i32 %17, 0
  br i1 %18, label %21, label %20

19:                                               ; preds = %4
  br i1 false, label %21, label %20

20:                                               ; preds = %19, %16
  store ptr null, ptr %5, align 8
  store i32 1, ptr %13, align 4
  br label %80

21:                                               ; preds = %19, %16
  %22 = load ptr, ptr @module_list_lock, align 8, !tbaa !31
  call void @ossl_rcu_write_lock(ptr noundef %22)
  %23 = call ptr @ossl_rcu_uptr_deref(ptr noundef @supported_modules)
  store ptr %23, ptr %11, align 8, !tbaa !33
  %24 = load ptr, ptr %11, align 8, !tbaa !33
  %25 = icmp eq ptr %24, null
  br i1 %25, label %26, label %28

26:                                               ; preds = %21
  %27 = call ptr @sk_CONF_MODULE_new_null()
  store ptr %27, ptr %12, align 8, !tbaa !33
  br label %31

28:                                               ; preds = %21
  %29 = load ptr, ptr %11, align 8, !tbaa !33
  %30 = call ptr @sk_CONF_MODULE_dup(ptr noundef %29)
  store ptr %30, ptr %12, align 8, !tbaa !33
  br label %31

31:                                               ; preds = %28, %26
  %32 = load ptr, ptr %12, align 8, !tbaa !33
  %33 = icmp eq ptr %32, null
  br i1 %33, label %34, label %35

34:                                               ; preds = %31
  br label %69

35:                                               ; preds = %31
  %36 = call noalias ptr @CRYPTO_zalloc(i64 noundef 48, ptr noundef @.str.1, i32 noundef 360)
  store ptr %36, ptr %10, align 8, !tbaa !27
  %37 = icmp eq ptr %36, null
  br i1 %37, label %38, label %39

38:                                               ; preds = %35
  br label %69

39:                                               ; preds = %35
  %40 = load ptr, ptr %6, align 8, !tbaa !46
  %41 = load ptr, ptr %10, align 8, !tbaa !27
  %42 = getelementptr inbounds nuw %struct.conf_module_st, ptr %41, i32 0, i32 0
  store ptr %40, ptr %42, align 8, !tbaa !38
  %43 = load ptr, ptr %7, align 8, !tbaa !8
  %44 = call noalias ptr @CRYPTO_strdup(ptr noundef %43, ptr noundef @.str.1, i32 noundef 364)
  %45 = load ptr, ptr %10, align 8, !tbaa !27
  %46 = getelementptr inbounds nuw %struct.conf_module_st, ptr %45, i32 0, i32 1
  store ptr %44, ptr %46, align 8, !tbaa !45
  %47 = load ptr, ptr %8, align 8, !tbaa !16
  %48 = load ptr, ptr %10, align 8, !tbaa !27
  %49 = getelementptr inbounds nuw %struct.conf_module_st, ptr %48, i32 0, i32 2
  store ptr %47, ptr %49, align 8, !tbaa !47
  %50 = load ptr, ptr %9, align 8, !tbaa !16
  %51 = load ptr, ptr %10, align 8, !tbaa !27
  %52 = getelementptr inbounds nuw %struct.conf_module_st, ptr %51, i32 0, i32 3
  store ptr %50, ptr %52, align 8, !tbaa !48
  %53 = load ptr, ptr %10, align 8, !tbaa !27
  %54 = getelementptr inbounds nuw %struct.conf_module_st, ptr %53, i32 0, i32 1
  %55 = load ptr, ptr %54, align 8, !tbaa !45
  %56 = icmp eq ptr %55, null
  br i1 %56, label %57, label %58

57:                                               ; preds = %39
  br label %69

58:                                               ; preds = %39
  %59 = load ptr, ptr %12, align 8, !tbaa !33
  %60 = load ptr, ptr %10, align 8, !tbaa !27
  %61 = call i32 @sk_CONF_MODULE_push(ptr noundef %59, ptr noundef %60)
  %62 = icmp ne i32 %61, 0
  br i1 %62, label %64, label %63

63:                                               ; preds = %58
  br label %69

64:                                               ; preds = %58
  call void @ossl_rcu_assign_uptr(ptr noundef @supported_modules, ptr noundef %12)
  %65 = load ptr, ptr @module_list_lock, align 8, !tbaa !31
  call void @ossl_rcu_write_unlock(ptr noundef %65)
  %66 = load ptr, ptr @module_list_lock, align 8, !tbaa !31
  call void @ossl_synchronize_rcu(ptr noundef %66)
  %67 = load ptr, ptr %11, align 8, !tbaa !33
  call void @sk_CONF_MODULE_free(ptr noundef %67)
  %68 = load ptr, ptr %10, align 8, !tbaa !27
  store ptr %68, ptr %5, align 8
  store i32 1, ptr %13, align 4
  br label %80

69:                                               ; preds = %63, %57, %38, %34
  %70 = load ptr, ptr @module_list_lock, align 8, !tbaa !31
  call void @ossl_rcu_write_unlock(ptr noundef %70)
  %71 = load ptr, ptr %10, align 8, !tbaa !27
  %72 = icmp ne ptr %71, null
  br i1 %72, label %73, label %78

73:                                               ; preds = %69
  %74 = load ptr, ptr %10, align 8, !tbaa !27
  %75 = getelementptr inbounds nuw %struct.conf_module_st, ptr %74, i32 0, i32 1
  %76 = load ptr, ptr %75, align 8, !tbaa !45
  call void @CRYPTO_free(ptr noundef %76, ptr noundef @.str.1, i32 noundef 383)
  %77 = load ptr, ptr %10, align 8, !tbaa !27
  call void @CRYPTO_free(ptr noundef %77, ptr noundef @.str.1, i32 noundef 384)
  br label %78

78:                                               ; preds = %73, %69
  %79 = load ptr, ptr %12, align 8, !tbaa !33
  call void @sk_CONF_MODULE_free(ptr noundef %79)
  store ptr null, ptr %5, align 8
  store i32 1, ptr %13, align 4
  br label %80

80:                                               ; preds = %78, %64, %20
  call void @llvm.lifetime.end.p0(i64 8, ptr %12) #6
  call void @llvm.lifetime.end.p0(i64 8, ptr %11) #6
  call void @llvm.lifetime.end.p0(i64 8, ptr %10) #6
  %81 = load ptr, ptr %5, align 8
  ret ptr %81
}