; Function Attrs: nounwind uwtable
define internal fastcc ptr @module_add(ptr noundef %0, ptr noundef %1, ptr noundef %2, ptr noundef %3) unnamed_addr #0 {
  %5 = alloca ptr, align 8
  call void @llvm.lifetime.start.p0(i64 8, ptr nonnull %5) #7
  %6 = tail call i32 @CRYPTO_THREAD_run_once(ptr noundef nonnull @init_module_list_lock, ptr noundef nonnull @do_init_module_list_lock_ossl_) #7
  %7 = icmp ne i32 %6, 0
  %8 = load i32, ptr @do_init_module_list_lock_ossl_ret_, align 4
  %9 = icmp ne i32 %8, 0
  %or.cond = select i1 %7, i1 %9, i1 false
  br i1 %or.cond, label %10, label %40

10:                                               ; preds = %4
  %11 = load ptr, ptr @module_list_lock, align 8, !tbaa !18
  tail call void @ossl_rcu_write_lock(ptr noundef %11) #7
  %12 = tail call ptr @ossl_rcu_uptr_deref(ptr noundef nonnull @supported_modules) #7
  %13 = icmp eq ptr %12, null
  br i1 %13, label %14, label %16

14:                                               ; preds = %10
  %15 = tail call ptr @OPENSSL_sk_new_null() #7
  br label %18

16:                                               ; preds = %10
  %17 = tail call ptr @OPENSSL_sk_dup(ptr noundef nonnull %12) #7
  br label %18

18:                                               ; preds = %16, %14
  %19 = phi ptr [ %17, %16 ], [ %15, %14 ]
  store ptr %19, ptr %5, align 8, !tbaa !38
  %20 = icmp eq ptr %19, null
  br i1 %20, label %.thread, label %21

21:                                               ; preds = %18
  %22 = tail call noalias ptr @CRYPTO_zalloc(i64 noundef 48, ptr noundef nonnull @.str.1, i32 noundef 360) #7
  %23 = icmp eq ptr %22, null
  br i1 %23, label %.thread, label %24

24:                                               ; preds = %21
  store ptr %0, ptr %22, align 8, !tbaa !41
  %25 = tail call noalias ptr @CRYPTO_strdup(ptr noundef %1, ptr noundef nonnull @.str.1, i32 noundef 364) #7
  %26 = getelementptr inbounds nuw i8, ptr %22, i64 8
  store ptr %25, ptr %26, align 8, !tbaa !22
  %27 = getelementptr inbounds nuw i8, ptr %22, i64 16
  store ptr %2, ptr %27, align 8, !tbaa !31
  %28 = getelementptr inbounds nuw i8, ptr %22, i64 24
  store ptr %3, ptr %28, align 8, !tbaa !35
  %29 = icmp eq ptr %25, null
  br i1 %29, label %36, label %30

30:                                               ; preds = %24
  %31 = tail call i32 @OPENSSL_sk_push(ptr noundef nonnull %19, ptr noundef nonnull %22) #7
  %.not = icmp eq i32 %31, 0
  br i1 %.not, label %36, label %32

32:                                               ; preds = %30
  call void @ossl_rcu_assign_uptr(ptr noundef nonnull @supported_modules, ptr noundef nonnull %5) #7
  %33 = load ptr, ptr @module_list_lock, align 8, !tbaa !18
  call void @ossl_rcu_write_unlock(ptr noundef %33) #7
  %34 = load ptr, ptr @module_list_lock, align 8, !tbaa !18
  call void @ossl_synchronize_rcu(ptr noundef %34) #7
  call void @OPENSSL_sk_free(ptr noundef %12) #7
  br label %40

.thread:                                          ; preds = %18, %21
  %35 = load ptr, ptr @module_list_lock, align 8, !tbaa !18
  tail call void @ossl_rcu_write_unlock(ptr noundef %35) #7
  br label %39

36:                                               ; preds = %24, %30
  %37 = load ptr, ptr @module_list_lock, align 8, !tbaa !18
  tail call void @ossl_rcu_write_unlock(ptr noundef %37) #7
  %38 = load ptr, ptr %26, align 8, !tbaa !22
  tail call void @CRYPTO_free(ptr noundef %38, ptr noundef nonnull @.str.1, i32 noundef 383) #7
  tail call void @CRYPTO_free(ptr noundef nonnull %22, ptr noundef nonnull @.str.1, i32 noundef 384) #7
  br label %39

39:                                               ; preds = %.thread, %36
  tail call void @OPENSSL_sk_free(ptr noundef %19) #7
  br label %40

40:                                               ; preds = %4, %39, %32
  %.0 = phi ptr [ null, %39 ], [ %22, %32 ], [ null, %4 ]
  call void @llvm.lifetime.end.p0(i64 8, ptr nonnull %5) #7
  ret ptr %.0
}